target datalayout = "e-m:e-p270:32:32-p271:32:32-p272:64:64-i64:64-i128:128-f80:128-n8:16:32:64-S128"
target triple = "x86_64-pc-linux-gnu"

%struct.file = type { i32, i32, ptr, ptr }
%struct.inode = type { ptr, ptr, ptr, i16, i16, %union.inode_ops_u, i16, ptr, [1 x i8] }
%union.inode_ops_u = type { ptr }
%struct.file_operations = type { ptr, ptr, ptr, ptr, ptr, ptr, ptr, ptr, ptr, ptr }
%struct.mountpt_operations = type { ptr, ptr, ptr, ptr, ptr, ptr, ptr, ptr, ptr, ptr, ptr, ptr, ptr, ptr, ptr, ptr, ptr, ptr, ptr, ptr, ptr, ptr, ptr, ptr, ptr, ptr, ptr }
%struct.pollfd = type { i32, i32, i32, ptr, ptr, ptr }

; Function Attrs: nounwind uwtable
define void @poll_notify(ptr noundef %0, i32 noundef %1, i32 noundef %2) #0 {
  %4 = alloca ptr, align 8
  %5 = alloca i32, align 4
  %6 = alloca i32, align 4
  %7 = alloca i32, align 4
  %8 = alloca ptr, align 8
  store ptr %0, ptr %4, align 8
  store i32 %1, ptr %5, align 4
  store i32 %2, ptr %6, align 4
  store i32 0, ptr %7, align 4
  br label %9

9:                                                ; preds = %73, %3
  %10 = load i32, ptr %7, align 4
  %11 = load i32, ptr %5, align 4
  %12 = icmp slt i32 %10, %11
  br i1 %12, label %13, label %16

13:                                               ; preds = %9
  %14 = load i32, ptr %6, align 4
  %15 = icmp ne i32 %14, 0
  br label %16

16:                                               ; preds = %13, %9
  %17 = phi i1 [ false, %9 ], [ %15, %13 ]
  br i1 %17, label %18, label %76

18:                                               ; preds = %16
  %19 = load ptr, ptr %4, align 8
  %20 = load i32, ptr %7, align 4
  %21 = sext i32 %20 to i64
  %22 = getelementptr inbounds ptr, ptr %19, i64 %21
  %23 = load ptr, ptr %22, align 8
  store ptr %23, ptr %8, align 8
  %24 = load ptr, ptr %8, align 8
  %25 = icmp ne ptr %24, null
  br i1 %25, label %26, label %72

26:                                               ; preds = %18
  %27 = load i32, ptr %6, align 4
  %28 = load ptr, ptr %8, align 8
  %29 = getelementptr inbounds %struct.pollfd, ptr %28, i32 0, i32 1
  %30 = load i32, ptr %29, align 4
  %31 = or i32 %30, 8
  %32 = or i32 %31, 16
  %33 = and i32 %27, %32
  %34 = load ptr, ptr %8, align 8
  %35 = getelementptr inbounds %struct.pollfd, ptr %34, i32 0, i32 2
  %36 = load i32, ptr %35, align 8
  %37 = or i32 %36, %33
  store i32 %37, ptr %35, align 8
  %38 = load ptr, ptr %8, align 8
  %39 = getelementptr inbounds %struct.pollfd, ptr %38, i32 0, i32 2
  %40 = load i32, ptr %39, align 8
  %41 = and i32 %40, 24
  %42 = icmp ne i32 %41, 0
  br i1 %42, label %43, label %48

43:                                               ; preds = %26
  %44 = load ptr, ptr %8, align 8
  %45 = getelementptr inbounds %struct.pollfd, ptr %44, i32 0, i32 2
  %46 = load i32, ptr %45, align 8
  %47 = and i32 %46, -5
  store i32 %47, ptr %45, align 8
  br label %48

48:                                               ; preds = %43, %26
  %49 = load ptr, ptr %8, align 8
  %50 = getelementptr inbounds %struct.pollfd, ptr %49, i32 0, i32 2
  %51 = load i32, ptr %50, align 8
  %52 = icmp ne i32 %51, 0
  br i1 %52, label %59, label %53

53:                                               ; preds = %48
  %54 = load ptr, ptr %8, align 8
  %55 = getelementptr inbounds %struct.pollfd, ptr %54, i32 0, i32 1
  %56 = load i32, ptr %55, align 4
  %57 = and i32 %56, 65536
  %58 = icmp ne i32 %57, 0
  br i1 %58, label %59, label %71

59:                                               ; preds = %53, %48
  %60 = load ptr, ptr %8, align 8
  %61 = getelementptr inbounds %struct.pollfd, ptr %60, i32 0, i32 4
  %62 = load ptr, ptr %61, align 8
  %63 = icmp ne ptr %62, null
  br i1 %63, label %64, label %71

64:                                               ; preds = %59
  br label %65

65:                                               ; preds = %64
  br label %66

66:                                               ; preds = %65
  %67 = load ptr, ptr %8, align 8
  %68 = getelementptr inbounds %struct.pollfd, ptr %67, i32 0, i32 4
  %69 = load ptr, ptr %68, align 8
  %70 = load ptr, ptr %8, align 8
  call void %69(ptr noundef %70)
  br label %71

71:                                               ; preds = %66, %59, %53
  br label %72

72:                                               ; preds = %71, %18
  br label %73

73:                                               ; preds = %72
  %74 = load i32, ptr %7, align 4
  %75 = add nsw i32 %74, 1
  store i32 %75, ptr %7, align 4
  br label %9, !llvm.loop !6

76:                                               ; preds = %16
  ret void
}

; Function Attrs: nounwind uwtable
define i32 @file_poll(ptr noundef %0, ptr noundef %1, i1 noundef zeroext %2) #0 {
  %4 = alloca ptr, align 8
  %5 = alloca ptr, align 8
  %6 = alloca i8, align 1
  %7 = alloca ptr, align 8
  %8 = alloca i32, align 4
  store ptr %0, ptr %4, align 8
  store ptr %1, ptr %5, align 8
  %9 = zext i1 %2 to i8
  store i8 %9, ptr %6, align 1
  store i32 -38, ptr %8, align 4
  %10 = load ptr, ptr %4, align 8
  %11 = getelementptr inbounds %struct.file, ptr %10, i32 0, i32 2
  %12 = load ptr, ptr %11, align 8
  store ptr %12, ptr %7, align 8
  %13 = load ptr, ptr %7, align 8
  %14 = icmp ne ptr %13, null
  br i1 %14, label %15, label %125

15:                                               ; preds = %3
  %16 = load ptr, ptr %7, align 8
  %17 = getelementptr inbounds %struct.inode, ptr %16, i32 0, i32 4
  %18 = load i16, ptr %17, align 2
  %19 = zext i16 %18 to i32
  %20 = and i32 %19, 15
  %21 = icmp eq i32 %20, 1
  br i1 %21, label %43, label %22

22:                                               ; preds = %15
  %23 = load ptr, ptr %7, align 8
  %24 = getelementptr inbounds %struct.inode, ptr %23, i32 0, i32 4
  %25 = load i16, ptr %24, align 2
  %26 = zext i16 %25 to i32
  %27 = and i32 %26, 15
  %28 = icmp eq i32 %27, 5
  br i1 %28, label %43, label %29

29:                                               ; preds = %22
  %30 = load ptr, ptr %7, align 8
  %31 = getelementptr inbounds %struct.inode, ptr %30, i32 0, i32 4
  %32 = load i16, ptr %31, align 2
  %33 = zext i16 %32 to i32
  %34 = and i32 %33, 15
  %35 = icmp eq i32 %34, 9
  br i1 %35, label %43, label %36

36:                                               ; preds = %29
  %37 = load ptr, ptr %7, align 8
  %38 = getelementptr inbounds %struct.inode, ptr %37, i32 0, i32 4
  %39 = load i16, ptr %38, align 2
  %40 = zext i16 %39 to i32
  %41 = and i32 %40, 15
  %42 = icmp eq i32 %41, 10
  br i1 %42, label %43, label %66

43:                                               ; preds = %36, %29, %22, %15
  %44 = load ptr, ptr %7, align 8
  %45 = getelementptr inbounds %struct.inode, ptr %44, i32 0, i32 5
  %46 = load ptr, ptr %45, align 8
  %47 = icmp ne ptr %46, null
  br i1 %47, label %48, label %66

48:                                               ; preds = %43
  %49 = load ptr, ptr %7, align 8
  %50 = getelementptr inbounds %struct.inode, ptr %49, i32 0, i32 5
  %51 = load ptr, ptr %50, align 8
  %52 = getelementptr inbounds %struct.file_operations, ptr %51, i32 0, i32 8
  %53 = load ptr, ptr %52, align 8
  %54 = icmp ne ptr %53, null
  br i1 %54, label %55, label %66

55:                                               ; preds = %48
  %56 = load ptr, ptr %7, align 8
  %57 = getelementptr inbounds %struct.inode, ptr %56, i32 0, i32 5
  %58 = load ptr, ptr %57, align 8
  %59 = getelementptr inbounds %struct.file_operations, ptr %58, i32 0, i32 8
  %60 = load ptr, ptr %59, align 8
  %61 = load ptr, ptr %4, align 8
  %62 = load ptr, ptr %5, align 8
  %63 = load i8, ptr %6, align 1
  %64 = trunc i8 %63 to i1
  %65 = call i32 %60(ptr noundef %61, ptr noundef %62, i1 noundef zeroext %64)
  store i32 %65, ptr %8, align 4
  br label %124

66:                                               ; preds = %48, %43, %36
  %67 = load ptr, ptr %7, align 8
  %68 = getelementptr inbounds %struct.inode, ptr %67, i32 0, i32 4
  %69 = load i16, ptr %68, align 2
  %70 = zext i16 %69 to i32
  %71 = and i32 %70, 15
  %72 = icmp eq i32 %71, 3
  br i1 %72, label %73, label %96

73:                                               ; preds = %66
  %74 = load ptr, ptr %7, align 8
  %75 = getelementptr inbounds %struct.inode, ptr %74, i32 0, i32 5
  %76 = load ptr, ptr %75, align 8
  %77 = icmp ne ptr %76, null
  br i1 %77, label %78, label %96

78:                                               ; preds = %73
  %79 = load ptr, ptr %7, align 8
  %80 = getelementptr inbounds %struct.inode, ptr %79, i32 0, i32 5
  %81 = load ptr, ptr %80, align 8
  %82 = getelementptr inbounds %struct.mountpt_operations, ptr %81, i32 0, i32 8
  %83 = load ptr, ptr %82, align 8
  %84 = icmp ne ptr %83, null
  br i1 %84, label %85, label %96

85:                                               ; preds = %78
  %86 = load ptr, ptr %7, align 8
  %87 = getelementptr inbounds %struct.inode, ptr %86, i32 0, i32 5
  %88 = load ptr, ptr %87, align 8
  %89 = getelementptr inbounds %struct.mountpt_operations, ptr %88, i32 0, i32 8
  %90 = load ptr, ptr %89, align 8
  %91 = load ptr, ptr %4, align 8
  %92 = load ptr, ptr %5, align 8
  %93 = load i8, ptr %6, align 1
  %94 = trunc i8 %93 to i1
  %95 = call i32 %90(ptr noundef %91, ptr noundef %92, i1 noundef zeroext %94)
  store i32 %95, ptr %8, align 4
  br label %123

96:                                               ; preds = %78, %73, %66
  %97 = load ptr, ptr %7, align 8
  %98 = getelementptr inbounds %struct.inode, ptr %97, i32 0, i32 4
  %99 = load i16, ptr %98, align 2
  %100 = zext i16 %99 to i32
  %101 = and i32 %100, 15
  %102 = icmp eq i32 %101, 3
  br i1 %102, label %117, label %103

103:                                              ; preds = %96
  %104 = load ptr, ptr %7, align 8
  %105 = getelementptr inbounds %struct.inode, ptr %104, i32 0, i32 4
  %106 = load i16, ptr %105, align 2
  %107 = zext i16 %106 to i32
  %108 = and i32 %107, 15
  %109 = icmp eq i32 %108, 2
  br i1 %109, label %117, label %110

110:                                              ; preds = %103
  %111 = load ptr, ptr %7, align 8
  %112 = getelementptr inbounds %struct.inode, ptr %111, i32 0, i32 4
  %113 = load i16, ptr %112, align 2
  %114 = zext i16 %113 to i32
  %115 = and i32 %114, 15
  %116 = icmp eq i32 %115, 7
  br i1 %116, label %117, label %122

117:                                              ; preds = %110, %103, %96
  %118 = load i8, ptr %6, align 1
  %119 = trunc i8 %118 to i1
  br i1 %119, label %120, label %121

120:                                              ; preds = %117
  call void @poll_notify(ptr noundef %5, i32 noundef 1, i32 noundef 5)
  br label %121

121:                                              ; preds = %120, %117
  store i32 0, ptr %8, align 4
  br label %122

122:                                              ; preds = %121, %110
  br label %123

123:                                              ; preds = %122, %85
  br label %124

124:                                              ; preds = %123, %55
  br label %126

125:                                              ; preds = %3
  call void @poll_notify(ptr noundef %5, i32 noundef 1, i32 noundef 24)
  store i32 0, ptr %8, align 4
  br label %126

126:                                              ; preds = %125, %124
  %127 = load i32, ptr %8, align 4
  ret i32 %127
}