; Function Attrs: nounwind uwtable
define i32 @file_poll(ptr noundef %0, ptr noundef %1, i1 noundef zeroext %2) local_unnamed_addr #0 {
  %4 = getelementptr inbounds nuw i8, ptr %0, i64 8
  %5 = load ptr, ptr %4, align 8
  %.not = icmp eq ptr %5, null
  br i1 %.not, label %.lr.ph.split.i32.preheader, label %12

.lr.ph.split.i32.preheader:                       ; preds = %3
  %.not.i34 = icmp eq ptr %1, null
  br i1 %.not.i34, label %poll_notify.exit, label %.lr.ph.split.i32.preheader.split

.lr.ph.split.i32.preheader.split:                 ; preds = %.lr.ph.split.i32.preheader
  %6 = getelementptr inbounds nuw i8, ptr %1, i64 8
  %7 = getelementptr inbounds nuw i8, ptr %1, i64 24
  %8 = load ptr, ptr %7, align 8
  %9 = icmp eq ptr %8, null
  %.promoted = load i32, ptr %6, align 8
  %10 = and i32 %.promoted, -29
  %11 = or disjoint i32 %10, 24
  store i32 %11, ptr %6, align 8
  br i1 %9, label %poll_notify.exit, label %poll_notify.exit.loopexit48

12:                                               ; preds = %3
  %13 = getelementptr inbounds nuw i8, ptr %5, i64 26
  %14 = load i16, ptr %13, align 2
  %15 = and i16 %14, 15
  switch i16 %15, label %poll_notify.exit [
    i16 1, label %16
    i16 5, label %16
    i16 9, label %16
    i16 10, label %16
    i16 3, label %._crit_edge
    i16 2, label %.thread
    i16 7, label %.thread
  ]

._crit_edge:                                      ; preds = %12
  %.phi.trans.insert = getelementptr inbounds nuw i8, ptr %5, i64 32
  %.pre = load ptr, ptr %.phi.trans.insert, align 8
  br label %25

16:                                               ; preds = %12, %12, %12, %12
  %17 = getelementptr inbounds nuw i8, ptr %5, i64 32
  %18 = load ptr, ptr %17, align 8
  %.not28 = icmp eq ptr %18, null
  br i1 %.not28, label %24, label %19

19:                                               ; preds = %16
  %20 = getelementptr inbounds nuw i8, ptr %18, i64 64
  %21 = load ptr, ptr %20, align 8
  %.not29 = icmp eq ptr %21, null
  br i1 %.not29, label %24, label %22

22:                                               ; preds = %19
  %23 = tail call i32 %21(ptr noundef nonnull %0, ptr noundef %1, i1 noundef zeroext %2) #4
  br label %poll_notify.exit

24:                                               ; preds = %19, %16
  switch i16 %15, label %poll_notify.exit [
    i16 3, label %25
    i16 2, label %.thread
    i16 7, label %.thread
  ]

25:                                               ; preds = %._crit_edge, %24
  %26 = phi ptr [ %.pre, %._crit_edge ], [ %18, %24 ]
  %.not30 = icmp eq ptr %26, null
  br i1 %.not30, label %.thread, label %27

27:                                               ; preds = %25
  %28 = getelementptr inbounds nuw i8, ptr %26, i64 64
  %29 = load ptr, ptr %28, align 8
  %.not31 = icmp eq ptr %29, null
  br i1 %.not31, label %.thread, label %30

30:                                               ; preds = %27
  %31 = tail call i32 %29(ptr noundef nonnull %0, ptr noundef %1, i1 noundef zeroext %2) #4
  br label %poll_notify.exit

.thread:                                          ; preds = %12, %12, %24, %24, %25, %27
  br i1 %2, label %.lr.ph.split.i.preheader, label %poll_notify.exit

.lr.ph.split.i.preheader:                         ; preds = %.thread
  %.not.i = icmp eq ptr %1, null
  %32 = getelementptr inbounds nuw i8, ptr %1, i64 24
  br i1 %.not.i, label %poll_notify.exit, label %.lr.ph.split.i.preheader50

.lr.ph.split.i.preheader50:                       ; preds = %.lr.ph.split.i.preheader
  %33 = getelementptr inbounds nuw i8, ptr %1, i64 8
  %34 = getelementptr inbounds nuw i8, ptr %1, i64 4
  %35 = load i32, ptr %34, align 4
  %36 = and i32 %35, 5
  %37 = load i32, ptr %33, align 8
  %38 = or i32 %36, %37
  %39 = and i32 %37, 24
  %.not19.i = icmp eq i32 %39, 0
  %40 = and i32 %38, -5
  %spec.select.i = select i1 %.not19.i, i32 %38, i32 %40
  store i32 %spec.select.i, ptr %33, align 8
  %41 = and i32 %35, 65536
  %42 = or i32 %spec.select.i, %41
  %or.cond.i = icmp eq i32 %42, 0
  br i1 %or.cond.i, label %poll_notify.exit, label %43

43:                                               ; preds = %.lr.ph.split.i.preheader50
  %44 = load ptr, ptr %32, align 8
  %.not22.i = icmp eq ptr %44, null
  br i1 %.not22.i, label %poll_notify.exit, label %45

45:                                               ; preds = %43
  tail call void %44(ptr noundef nonnull %1) #4
  br label %poll_notify.exit

poll_notify.exit.loopexit48:                      ; preds = %.lr.ph.split.i32.preheader.split
  tail call void %8(ptr noundef nonnull %1) #4
  br label %poll_notify.exit

poll_notify.exit:                                 ; preds = %.lr.ph.split.i32.preheader.split, %.lr.ph.split.i.preheader50, %43, %45, %.lr.ph.split.i.preheader, %.lr.ph.split.i32.preheader, %poll_notify.exit.loopexit48, %12, %24, %.thread, %22, %30
  %.0 = phi i32 [ %23, %22 ], [ %31, %30 ], [ 0, %.thread ], [ -38, %24 ], [ -38, %12 ], [ 0, %poll_notify.exit.loopexit48 ], [ 0, %.lr.ph.split.i32.preheader ], [ 0, %.lr.ph.split.i.preheader ], [ 0, %45 ], [ 0, %43 ], [ 0, %.lr.ph.split.i.preheader50 ], [ 0, %.lr.ph.split.i32.preheader.split ]
  ret i32 %.0
}